; Function Attrs: mustprogress uwtable
define noundef nonnull align 8 dereferenceable(72) ptr @_ZNK6icu_7510DateFormat11getTimeZoneEv(ptr nocapture noundef nonnull readonly align 8 dereferenceable(352) %this) unnamed_addr #3 align 2 {
entry:
  %fCalendar = getelementptr inbounds i8, ptr %this, i64 328
  %0 = load ptr, ptr %fCalendar, align 8
  %cmp.not = icmp eq ptr %0, null
  br i1 %cmp.not, label %if.end, label %if.then

if.then:                                          ; preds = %entry
  %call = tail call noundef nonnull align 8 dereferenceable(72) ptr @_ZNK6icu_758Calendar11getTimeZoneEv(ptr noundef nonnull align 8 dereferenceable(618) %0)
  br label %return

if.end:                                           ; preds = %entry
  %call3 = tail call noundef ptr @_ZN6icu_758TimeZone13createDefaultEv()
  br label %return

return:                                           ; preds = %if.end, %if.then
  %retval.0 = phi ptr [ %call, %if.then ], [ %call3, %if.end ]
  ret ptr %retval.0
}